target datalayout = "e-m:e-p270:32:32-p271:32:32-p272:64:64-i64:64-i128:128-f80:128-n8:16:32:64-S128"
target triple = "x86_64-pc-linux-gnu"

%struct.TestCase = type { ptr, ptr }

@main_argc = hidden global i32 0, align 4
@main_argv = hidden global ptr null, align 8
@.str = private unnamed_addr constant [178 x i8] c"Python 3.14.0a4+ _testembed executable for embedded interpreter tests\0ANormally executed via 'EmbeddingTests' in Lib/test/test_embed.py\0A\0AUsage: %s TESTNAME\0A\0AAll available tests:\0A\00", align 1
@.str.1 = private unnamed_addr constant [6 x i8] c"  %s\0A\00", align 1

; Function Attrs: nounwind uwtable
define hidden i32 @main(i32 noundef %0, ptr noundef %1) #0 {
  %3 = alloca i32, align 4
  %4 = alloca i32, align 4
  %5 = alloca ptr, align 8
  %6 = alloca ptr, align 8
  %7 = alloca i32, align 4
  %8 = alloca ptr, align 8
  store i32 0, ptr %3, align 4
  store i32 %0, ptr %4, align 4, !tbaa !4
  store ptr %1, ptr %5, align 8, !tbaa !8
  %9 = load i32, ptr %4, align 4, !tbaa !4
  store i32 %9, ptr @main_argc, align 4, !tbaa !4
  %10 = load ptr, ptr %5, align 8, !tbaa !8
  store ptr %10, ptr @main_argv, align 8, !tbaa !8
  %11 = load i32, ptr %4, align 4, !tbaa !4
  %12 = icmp sgt i32 %11, 1
  br i1 %12, label %13, label %46

13:                                               ; preds = %2
  call void @llvm.lifetime.start.p0(i64 8, ptr %6) #11
  store ptr @TestCases, ptr %6, align 8, !tbaa !11
  br label %14

14:                                               ; preds = %40, %13
  %15 = load ptr, ptr %6, align 8, !tbaa !11
  %16 = icmp ne ptr %15, null
  br i1 %16, label %17, label %22

17:                                               ; preds = %14
  %18 = load ptr, ptr %6, align 8, !tbaa !11
  %19 = getelementptr inbounds nuw %struct.TestCase, ptr %18, i32 0, i32 0
  %20 = load ptr, ptr %19, align 8, !tbaa !13
  %21 = icmp ne ptr %20, null
  br label %22

22:                                               ; preds = %17, %14
  %23 = phi i1 [ false, %14 ], [ %21, %17 ]
  br i1 %23, label %25, label %24

24:                                               ; preds = %22
  store i32 2, ptr %7, align 4
  br label %43

25:                                               ; preds = %22
  %26 = load ptr, ptr %5, align 8, !tbaa !8
  %27 = getelementptr ptr, ptr %26, i64 1
  %28 = load ptr, ptr %27, align 8, !tbaa !16
  %29 = load ptr, ptr %6, align 8, !tbaa !11
  %30 = getelementptr inbounds nuw %struct.TestCase, ptr %29, i32 0, i32 0
  %31 = load ptr, ptr %30, align 8, !tbaa !13
  %32 = call i32 @strcmp(ptr noundef %28, ptr noundef %31) #12
  %33 = icmp eq i32 %32, 0
  br i1 %33, label %34, label %39

34:                                               ; preds = %25
  %35 = load ptr, ptr %6, align 8, !tbaa !11
  %36 = getelementptr inbounds nuw %struct.TestCase, ptr %35, i32 0, i32 1
  %37 = load ptr, ptr %36, align 8, !tbaa !17
  %38 = call i32 %37()
  store i32 %38, ptr %3, align 4
  store i32 1, ptr %7, align 4
  br label %43

39:                                               ; preds = %25
  br label %40

40:                                               ; preds = %39
  %41 = load ptr, ptr %6, align 8, !tbaa !11
  %42 = getelementptr %struct.TestCase, ptr %41, i32 1
  store ptr %42, ptr %6, align 8, !tbaa !11
  br label %14, !llvm.loop !18

43:                                               ; preds = %34, %24
  call void @llvm.lifetime.end.p0(i64 8, ptr %6) #11
  %44 = load i32, ptr %7, align 4
  switch i32 %44, label %73 [
    i32 2, label %45
    i32 1, label %71
  ]

45:                                               ; preds = %43
  br label %46

46:                                               ; preds = %45, %2
  %47 = load ptr, ptr %5, align 8, !tbaa !8
  %48 = getelementptr ptr, ptr %47, i64 0
  %49 = load ptr, ptr %48, align 8, !tbaa !16
  %50 = call i32 (ptr, ...) @printf(ptr noundef @.str, ptr noundef %49)
  call void @llvm.lifetime.start.p0(i64 8, ptr %8) #11
  store ptr @TestCases, ptr %8, align 8, !tbaa !11
  br label %51

51:                                               ; preds = %67, %46
  %52 = load ptr, ptr %8, align 8, !tbaa !11
  %53 = icmp ne ptr %52, null
  br i1 %53, label %54, label %59

54:                                               ; preds = %51
  %55 = load ptr, ptr %8, align 8, !tbaa !11
  %56 = getelementptr inbounds nuw %struct.TestCase, ptr %55, i32 0, i32 0
  %57 = load ptr, ptr %56, align 8, !tbaa !13
  %58 = icmp ne ptr %57, null
  br label %59

59:                                               ; preds = %54, %51
  %60 = phi i1 [ false, %51 ], [ %58, %54 ]
  br i1 %60, label %62, label %61

61:                                               ; preds = %59
  store i32 5, ptr %7, align 4
  call void @llvm.lifetime.end.p0(i64 8, ptr %8) #11
  br label %70

62:                                               ; preds = %59
  %63 = load ptr, ptr %8, align 8, !tbaa !11
  %64 = getelementptr inbounds nuw %struct.TestCase, ptr %63, i32 0, i32 0
  %65 = load ptr, ptr %64, align 8, !tbaa !13
  %66 = call i32 (ptr, ...) @printf(ptr noundef @.str.1, ptr noundef %65)
  br label %67

67:                                               ; preds = %62
  %68 = load ptr, ptr %8, align 8, !tbaa !11
  %69 = getelementptr %struct.TestCase, ptr %68, i32 1
  store ptr %69, ptr %8, align 8, !tbaa !11
  br label %51, !llvm.loop !20

70:                                               ; preds = %61
  store i32 -1, ptr %3, align 4
  br label %71

71:                                               ; preds = %70, %43
  %72 = load i32, ptr %3, align 4
  ret i32 %72

73:                                               ; preds = %43
  unreachable
}