; Function Attrs: nounwind uwtable
define hidden i32 @main(i32 noundef %0, ptr noundef %1) local_unnamed_addr #0 {
  store i32 %0, ptr @main_argc, align 4, !tbaa !4
  store ptr %1, ptr @main_argv, align 8, !tbaa !8
  %3 = icmp sgt i32 %0, 1
  br i1 %3, label %.preheader, label %.critedge.thread

.preheader:                                       ; preds = %2
  %4 = getelementptr i8, ptr %1, i64 8
  %5 = load ptr, ptr %4, align 8, !tbaa !11
  br label %6

6:                                                ; preds = %.preheader, %10
  %7 = phi ptr [ @.str.2, %.preheader ], [ %12, %10 ]
  %.0183035 = phi ptr [ @TestCases, %.preheader ], [ %11, %10 ]
  %8 = tail call i32 @strcmp(ptr noundef nonnull dereferenceable(1) %5, ptr noundef nonnull dereferenceable(1) %7) #19
  %9 = icmp eq i32 %8, 0
  br i1 %9, label %.critedge, label %10

10:                                               ; preds = %6
  %11 = getelementptr i8, ptr %.0183035, i64 16
  %12 = load ptr, ptr %11, align 8, !tbaa !13
  %.not22 = icmp eq ptr %12, null
  br i1 %.not22, label %.critedge.thread, label %6

.critedge:                                        ; preds = %6
  %13 = getelementptr inbounds nuw i8, ptr %.0183035, i64 8
  %14 = load ptr, ptr %13, align 8, !tbaa !15
  %15 = tail call i32 %14() #20
  br label %.critedge2

.critedge.thread:                                 ; preds = %10, %2
  %16 = load ptr, ptr %1, align 8, !tbaa !11
  %17 = tail call i32 (ptr, ...) @printf(ptr noundef nonnull dereferenceable(1) @.str, ptr noundef %16)
  br label %18

18:                                               ; preds = %.critedge.thread, %18
  %19 = phi ptr [ @.str.2, %.critedge.thread ], [ %22, %18 ]
  %.03136 = phi ptr [ @TestCases, %.critedge.thread ], [ %21, %18 ]
  %20 = tail call i32 (ptr, ...) @printf(ptr noundef nonnull dereferenceable(1) @.str.1, ptr noundef nonnull %19)
  %21 = getelementptr i8, ptr %.03136, i64 16
  %22 = load ptr, ptr %21, align 8, !tbaa !13
  %.not24 = icmp eq ptr %22, null
  br i1 %.not24, label %.critedge2, label %18

.critedge2:                                       ; preds = %18, %.critedge
  %.1 = phi i32 [ %15, %.critedge ], [ -1, %18 ]
  ret i32 %.1
}